; ModuleID = '27/376.cpp'
source_filename = "27/376.cpp"
target datalayout = "e-m:e-p270:32:32-p271:32:32-p272:64:64-i64:64-f80:128-n8:16:32:64-S128"
target triple = "x86_64-pc-linux-gnu"

%"class.std::ios_base::Init" = type { i8 }
%"class.std::basic_istream" = type { i32 (...)**, i64, %"class.std::basic_ios" }
%"class.std::basic_ios" = type { %"class.std::ios_base", %"class.std::basic_ostream"*, i8, i8, %"class.std::basic_streambuf"*, %"class.std::ctype"*, %"class.std::num_put"*, %"class.std::num_get"* }
%"class.std::ios_base" = type { i32 (...)**, i64, i64, i32, i32, i32, %"struct.std::ios_base::_Callback_list"*, %"struct.std::ios_base::_Words", [8 x %"struct.std::ios_base::_Words"], i32, %"struct.std::ios_base::_Words"*, %"class.std::locale" }
%"struct.std::ios_base::_Callback_list" = type { %"struct.std::ios_base::_Callback_list"*, void (i32, %"class.std::ios_base"*, i32)*, i32, i32 }
%"struct.std::ios_base::_Words" = type { i8*, i64 }
%"class.std::locale" = type { %"class.std::locale::_Impl"* }
%"class.std::locale::_Impl" = type { i32, %"class.std::locale::facet"**, i64, %"class.std::locale::facet"**, i8** }
%"class.std::locale::facet" = type <{ i32 (...)**, i32, [4 x i8] }>
%"class.std::basic_ostream" = type { i32 (...)**, %"class.std::basic_ios" }
%"class.std::basic_streambuf" = type { i32 (...)**, i8*, i8*, i8*, i8*, i8*, i8*, %"class.std::locale" }
%"class.std::ctype" = type <{ %"class.std::locale::facet.base", [4 x i8], %struct.__locale_struct*, i8, [7 x i8], i32*, i32*, i16*, i8, [256 x i8], [256 x i8], i8, [6 x i8] }>
%"class.std::locale::facet.base" = type <{ i32 (...)**, i32 }>
%struct.__locale_struct = type { [13 x %struct.__locale_data*], i16*, i32*, i32*, [13 x i8*] }
%struct.__locale_data = type opaque
%"class.std::num_put" = type { %"class.std::locale::facet.base", [4 x i8] }
%"class.std::num_get" = type { %"class.std::locale::facet.base", [4 x i8] }

@_ZStL8__ioinit = internal global %"class.std::ios_base::Init" zeroinitializer, align 1
@__dso_handle = external hidden global i8
@_ZSt3cin = external dso_local global %"class.std::basic_istream", align 8
@.str = private unnamed_addr constant [12 x i8] c"x1=x2=%.5f\0A\00", align 1
@.str.1 = private unnamed_addr constant [17 x i8] c"x1=%.5f;x2=%.5f\0A\00", align 1
@.str.2 = private unnamed_addr constant [29 x i8] c"x1=%.5f+%.5fi;x2=%.5f-%.5fi\0A\00", align 1
@llvm.global_ctors = appending global [1 x { i32, void ()*, i8* }] [{ i32, void ()*, i8* } { i32 65535, void ()* @_GLOBAL__sub_I_376.cpp, i8* null }]

; Function Attrs: noinline uwtable
define internal void @__cxx_global_var_init() #0 section ".text.startup" {
  call void @_ZNSt8ios_base4InitC1Ev(%"class.std::ios_base::Init"* @_ZStL8__ioinit)
  %1 = call i32 @__cxa_atexit(void (i8*)* bitcast (void (%"class.std::ios_base::Init"*)* @_ZNSt8ios_base4InitD1Ev to void (i8*)*), i8* getelementptr inbounds (%"class.std::ios_base::Init", %"class.std::ios_base::Init"* @_ZStL8__ioinit, i32 0, i32 0), i8* @__dso_handle) #3
  ret void
}

declare dso_local void @_ZNSt8ios_base4InitC1Ev(%"class.std::ios_base::Init"*) unnamed_addr #1

; Function Attrs: nounwind
declare dso_local void @_ZNSt8ios_base4InitD1Ev(%"class.std::ios_base::Init"*) unnamed_addr #2

; Function Attrs: nounwind
declare dso_local i32 @__cxa_atexit(void (i8*)*, i8*, i8*) #3

; Function Attrs: noinline norecurse uwtable
define dso_local i32 @main() #4 {
  %1 = alloca i32, align 4
  %2 = alloca double, align 8
  %3 = alloca double, align 8
  %4 = alloca double, align 8
  %5 = alloca double, align 8
  %6 = alloca double, align 8
  %7 = alloca double, align 8
  %8 = alloca i32, align 4
  %9 = alloca i32, align 4
  store i32 0, i32* %1, align 4
  %10 = call dereferenceable(280) %"class.std::basic_istream"* @_ZNSirsERi(%"class.std::basic_istream"* @_ZSt3cin, i32* dereferenceable(4) %8)
  store i32 1, i32* %9, align 4
  br label %11

11:                                               ; preds = %123, %0
  %12 = load i32, i32* %9, align 4
  %13 = load i32, i32* %8, align 4
  %14 = add nsw i32 %13, 1
  %15 = icmp slt i32 %12, %14
  br i1 %15, label %16, label %126

16:                                               ; preds = %11
  %17 = call dereferenceable(280) %"class.std::basic_istream"* @_ZNSirsERd(%"class.std::basic_istream"* @_ZSt3cin, double* dereferenceable(8) %2)
  %18 = call dereferenceable(280) %"class.std::basic_istream"* @_ZNSirsERd(%"class.std::basic_istream"* %17, double* dereferenceable(8) %3)
  %19 = call dereferenceable(280) %"class.std::basic_istream"* @_ZNSirsERd(%"class.std::basic_istream"* %18, double* dereferenceable(8) %4)
  %20 = load double, double* %3, align 8
  %21 = fneg double %20
  %22 = load double, double* %2, align 8
  %23 = fmul double 2.000000e+00, %22
  %24 = fdiv double %21, %23
  store double %24, double* %5, align 8
  %25 = load double, double* %3, align 8
  %26 = load double, double* %3, align 8
  %27 = fmul double %25, %26
  %28 = load double, double* %2, align 8
  %29 = fmul double 4.000000e+00, %28
  %30 = load double, double* %4, align 8
  %31 = fmul double %29, %30
  %32 = fsub double %27, %31
  %33 = call double @llvm.fabs.f64(double %32)
  %34 = fcmp olt double %33, 1.000000e-09
  br i1 %34, label %35, label %42

35:                                               ; preds = %16
  %36 = load double, double* %3, align 8
  %37 = fneg double %36
  %38 = load double, double* %2, align 8
  %39 = fmul double 2.000000e+00, %38
  %40 = fdiv double %37, %39
  %41 = call i32 (i8*, ...) @printf(i8* getelementptr inbounds ([12 x i8], [12 x i8]* @.str, i64 0, i64 0), double %40)
  br label %122

42:                                               ; preds = %16
  %43 = load double, double* %3, align 8
  %44 = load double, double* %3, align 8
  %45 = fmul double %43, %44
  %46 = load double, double* %2, align 8
  %47 = fmul double 4.000000e+00, %46
  %48 = load double, double* %4, align 8
  %49 = fmul double %47, %48
  %50 = fsub double %45, %49
  %51 = fcmp ogt double %50, 0.000000e+00
  br i1 %51, label %52, label %86

52:                                               ; preds = %42
  %53 = load double, double* %3, align 8
  %54 = fneg double %53
  %55 = load double, double* %3, align 8
  %56 = load double, double* %3, align 8
  %57 = fmul double %55, %56
  %58 = load double, double* %2, align 8
  %59 = fmul double 4.000000e+00, %58
  %60 = load double, double* %4, align 8
  %61 = fmul double %59, %60
  %62 = fsub double %57, %61
  %63 = call double @sqrt(double %62) #3
  %64 = fadd double %54, %63
  %65 = load double, double* %2, align 8
  %66 = fmul double 2.000000e+00, %65
  %67 = fdiv double %64, %66
  store double %67, double* %6, align 8
  %68 = load double, double* %3, align 8
  %69 = fneg double %68
  %70 = load double, double* %3, align 8
  %71 = load double, double* %3, align 8
  %72 = fmul double %70, %71
  %73 = load double, double* %2, align 8
  %74 = fmul double 4.000000e+00, %73
  %75 = load double, double* %4, align 8
  %76 = fmul double %74, %75
  %77 = fsub double %72, %76
  %78 = call double @sqrt(double %77) #3
  %79 = fsub double %69, %78
  %80 = load double, double* %2, align 8
  %81 = fmul double 2.000000e+00, %80
  %82 = fdiv double %79, %81
  store double %82, double* %7, align 8
  %83 = load double, double* %6, align 8
  %84 = load double, double* %7, align 8
  %85 = call i32 (i8*, ...) @printf(i8* getelementptr inbounds ([17 x i8], [17 x i8]* @.str.1, i64 0, i64 0), double %83, double %84)
  br label %121

86:                                               ; preds = %42
  %87 = load double, double* %5, align 8
  %88 = call double @llvm.fabs.f64(double %87)
  %89 = fcmp olt double %88, 1.000000e-09
  br i1 %89, label %90, label %91

90:                                               ; preds = %86
  store double 0.000000e+00, double* %5, align 8
  br label %91

91:                                               ; preds = %90, %86
  %92 = load double, double* %5, align 8
  %93 = load double, double* %3, align 8
  %94 = load double, double* %3, align 8
  %95 = fmul double %93, %94
  %96 = load double, double* %2, align 8
  %97 = fmul double 4.000000e+00, %96
  %98 = load double, double* %4, align 8
  %99 = fmul double %97, %98
  %100 = fsub double %95, %99
  %101 = fneg double %100
  %102 = call double @sqrt(double %101) #3
  %103 = load double, double* %2, align 8
  %104 = fmul double 2.000000e+00, %103
  %105 = fdiv double %102, %104
  %106 = load double, double* %5, align 8
  %107 = load double, double* %3, align 8
  %108 = load double, double* %3, align 8
  %109 = fmul double %107, %108
  %110 = load double, double* %2, align 8
  %111 = fmul double 4.000000e+00, %110
  %112 = load double, double* %4, align 8
  %113 = fmul double %111, %112
  %114 = fsub double %109, %113
  %115 = fneg double %114
  %116 = call double @sqrt(double %115) #3
  %117 = load double, double* %2, align 8
  %118 = fmul double 2.000000e+00, %117
  %119 = fdiv double %116, %118
  %120 = call i32 (i8*, ...) @printf(i8* getelementptr inbounds ([29 x i8], [29 x i8]* @.str.2, i64 0, i64 0), double %92, double %105, double %106, double %119)
  br label %121

121:                                              ; preds = %91, %52
  br label %122

122:                                              ; preds = %121, %35
  br label %123

123:                                              ; preds = %122
  %124 = load i32, i32* %9, align 4
  %125 = add nsw i32 %124, 1
  store i32 %125, i32* %9, align 4
  br label %11

126:                                              ; preds = %11
  ret i32 0
}

declare dso_local dereferenceable(280) %"class.std::basic_istream"* @_ZNSirsERi(%"class.std::basic_istream"*, i32* dereferenceable(4)) #1

declare dso_local dereferenceable(280) %"class.std::basic_istream"* @_ZNSirsERd(%"class.std::basic_istream"*, double* dereferenceable(8)) #1

; Function Attrs: nounwind readnone speculatable willreturn
declare double @llvm.fabs.f64(double) #5

declare dso_local i32 @printf(i8*, ...) #1

; Function Attrs: nounwind
declare dso_local double @sqrt(double) #2

; Function Attrs: noinline uwtable
define internal void @_GLOBAL__sub_I_376.cpp() #0 section ".text.startup" {
  call void @__cxx_global_var_init()
  ret void
}


!llvm.module.flags = !{!0}
!llvm.ident = !{!1}

!0 = !{i32 1, !"wchar_size", i32 4}
!1 = !{!"clang version 10.0.0-4ubuntu1 "}
